target datalayout = "e-m:e-p270:32:32-p271:32:32-p272:64:64-i64:64-i128:128-f80:128-n8:16:32:64-S128"
target triple = "x86_64-pc-linux-gnu"

; Function Attrs: mustprogress nounwind uwtable
define dso_local void @meshopt_remapIndexBuffer(ptr noundef %0, ptr noundef %1, i64 noundef %2, ptr noundef %3) #2 {
  %5 = alloca ptr, align 8
  %6 = alloca ptr, align 8
  %7 = alloca i64, align 8
  %8 = alloca ptr, align 8
  %9 = alloca i64, align 8
  %10 = alloca i32, align 4
  store ptr %0, ptr %5, align 8, !tbaa !4
  store ptr %1, ptr %6, align 8, !tbaa !4
  store i64 %2, ptr %7, align 8, !tbaa !9
  store ptr %3, ptr %8, align 8, !tbaa !4
  call void @llvm.lifetime.start.p0(i64 8, ptr %9) #9
  store i64 0, ptr %9, align 8, !tbaa !9
  br label %11

11:                                               ; preds = %37, %4
  %12 = load i64, ptr %9, align 8, !tbaa !9
  %13 = load i64, ptr %7, align 8, !tbaa !9
  %14 = icmp ult i64 %12, %13
  br i1 %14, label %16, label %15

15:                                               ; preds = %11
  call void @llvm.lifetime.end.p0(i64 8, ptr %9) #9
  br label %40

16:                                               ; preds = %11
  call void @llvm.lifetime.start.p0(i64 4, ptr %10) #9
  %17 = load ptr, ptr %6, align 8, !tbaa !4
  %18 = icmp ne ptr %17, null
  br i1 %18, label %19, label %24

19:                                               ; preds = %16
  %20 = load ptr, ptr %6, align 8, !tbaa !4
  %21 = load i64, ptr %9, align 8, !tbaa !9
  %22 = getelementptr inbounds nuw i32, ptr %20, i64 %21
  %23 = load i32, ptr %22, align 4, !tbaa !17
  br label %27

24:                                               ; preds = %16
  %25 = load i64, ptr %9, align 8, !tbaa !9
  %26 = trunc i64 %25 to i32
  br label %27

27:                                               ; preds = %24, %19
  %28 = phi i32 [ %23, %19 ], [ %26, %24 ]
  store i32 %28, ptr %10, align 4, !tbaa !17
  %29 = load ptr, ptr %8, align 8, !tbaa !4
  %30 = load i32, ptr %10, align 4, !tbaa !17
  %31 = zext i32 %30 to i64
  %32 = getelementptr inbounds nuw i32, ptr %29, i64 %31
  %33 = load i32, ptr %32, align 4, !tbaa !17
  %34 = load ptr, ptr %5, align 8, !tbaa !4
  %35 = load i64, ptr %9, align 8, !tbaa !9
  %36 = getelementptr inbounds nuw i32, ptr %34, i64 %35
  store i32 %33, ptr %36, align 4, !tbaa !17
  call void @llvm.lifetime.end.p0(i64 4, ptr %10) #9
  br label %37

37:                                               ; preds = %27
  %38 = load i64, ptr %9, align 8, !tbaa !9
  %39 = add i64 %38, 1
  store i64 %39, ptr %9, align 8, !tbaa !9
  br label %11, !llvm.loop !46

40:                                               ; preds = %15
  ret void
}