; Function Attrs: mustprogress nofree norecurse nosync nounwind memory(argmem: readwrite) uwtable
define dso_local void @meshopt_remapIndexBuffer(ptr noundef writeonly captures(none) %0, ptr noundef readonly %1, i64 noundef %2, ptr noundef readonly captures(none) %3) local_unnamed_addr #5 {
  %.not12 = icmp eq i64 %2, 0
  br i1 %.not12, label %._crit_edge, label %.lr.ph

.lr.ph:                                           ; preds = %4
  %.not = icmp eq ptr %1, null
  br i1 %.not, label %.lr.ph.split.us, label %.lr.ph.split

.lr.ph.split.us:                                  ; preds = %.lr.ph, %.lr.ph.split.us
  %.011.us = phi i64 [ %9, %.lr.ph.split.us ], [ 0, %.lr.ph ]
  %5 = and i64 %.011.us, 4294967295
  %6 = getelementptr inbounds nuw i32, ptr %3, i64 %5
  %7 = load i32, ptr %6, align 4, !tbaa !10
  %8 = getelementptr inbounds nuw i32, ptr %0, i64 %.011.us
  store i32 %7, ptr %8, align 4, !tbaa !10
  %9 = add nuw i64 %.011.us, 1
  %exitcond14.not = icmp eq i64 %9, %2
  br i1 %exitcond14.not, label %._crit_edge, label %.lr.ph.split.us, !llvm.loop !30

._crit_edge:                                      ; preds = %.lr.ph.split, %.lr.ph.split.us, %4
  ret void

.lr.ph.split:                                     ; preds = %.lr.ph, %.lr.ph.split
  %.011 = phi i64 [ %16, %.lr.ph.split ], [ 0, %.lr.ph ]
  %10 = getelementptr inbounds nuw i32, ptr %1, i64 %.011
  %11 = load i32, ptr %10, align 4, !tbaa !10
  %12 = zext i32 %11 to i64
  %13 = getelementptr inbounds nuw i32, ptr %3, i64 %12
  %14 = load i32, ptr %13, align 4, !tbaa !10
  %15 = getelementptr inbounds nuw i32, ptr %0, i64 %.011
  store i32 %14, ptr %15, align 4, !tbaa !10
  %16 = add nuw i64 %.011, 1
  %exitcond.not = icmp eq i64 %16, %2
  br i1 %exitcond.not, label %._crit_edge, label %.lr.ph.split, !llvm.loop !30
}